; Function Attrs: nounwind uwtable
define internal fastcc void @_jumbleJsonTablePathScan(ptr noundef %0, ptr noundef nonnull readonly captures(none) %1) unnamed_addr #0 {
  %3 = getelementptr inbounds nuw i8, ptr %1, i64 8
  %4 = load ptr, ptr %3, align 8
  tail call fastcc void @_jumbleNode(ptr noundef %0, ptr noundef %4)
  %5 = getelementptr inbounds nuw i8, ptr %1, i64 16
  %6 = load ptr, ptr %0, align 8
  %7 = getelementptr inbounds nuw i8, ptr %0, i64 8
  %8 = load i64, ptr %7, align 8
  br label %.lr.ph.i

.lr.ph.i:                                         ; preds = %12, %2
  %.026.i = phi ptr [ %17, %12 ], [ %5, %2 ]
  %.02125.i = phi i64 [ %18, %12 ], [ 1, %2 ]
  %.02224.i = phi i64 [ %16, %12 ], [ %8, %2 ]
  %9 = icmp ugt i64 %.02224.i, 1023
  br i1 %9, label %10, label %12

10:                                               ; preds = %.lr.ph.i
  %11 = tail call i64 @hash_bytes_extended(ptr noundef %6, i32 noundef 1024, i64 noundef 0) #9
  store i64 %11, ptr %6, align 1
  br label %12

12:                                               ; preds = %10, %.lr.ph.i
  %.1.i = phi i64 [ 8, %10 ], [ %.02224.i, %.lr.ph.i ]
  %13 = sub nuw nsw i64 1024, %.1.i
  %14 = tail call i64 @llvm.umin.i64(i64 %.02125.i, i64 %13)
  %15 = getelementptr inbounds nuw i8, ptr %6, i64 %.1.i
  tail call void @llvm.memcpy.p0.p0.i64(ptr noundef nonnull align 1 dereferenceable(1) %15, ptr noundef nonnull align 1 dereferenceable(1) %.026.i, i64 %14, i1 false)
  %16 = add nuw nsw i64 %14, %.1.i
  %17 = getelementptr inbounds nuw i8, ptr %.026.i, i64 %14
  %18 = sub i64 %.02125.i, %14
  %.not.i = icmp eq i64 %18, 0
  br i1 %.not.i, label %AppendJumble.exit, label %.lr.ph.i, !llvm.loop !7

AppendJumble.exit:                                ; preds = %12
  store i64 %16, ptr %7, align 8
  %19 = getelementptr inbounds nuw i8, ptr %1, i64 24
  %20 = load ptr, ptr %19, align 8
  tail call fastcc void @_jumbleNode(ptr noundef nonnull %0, ptr noundef %20)
  %21 = getelementptr inbounds nuw i8, ptr %1, i64 32
  %22 = load ptr, ptr %0, align 8
  %23 = load i64, ptr %7, align 8
  br label %.lr.ph.i11

.lr.ph.i11:                                       ; preds = %27, %AppendJumble.exit
  %.026.i12 = phi ptr [ %32, %27 ], [ %21, %AppendJumble.exit ]
  %.02125.i13 = phi i64 [ %33, %27 ], [ 4, %AppendJumble.exit ]
  %.02224.i14 = phi i64 [ %31, %27 ], [ %23, %AppendJumble.exit ]
  %24 = icmp ugt i64 %.02224.i14, 1023
  br i1 %24, label %25, label %27

25:                                               ; preds = %.lr.ph.i11
  %26 = tail call i64 @hash_bytes_extended(ptr noundef %22, i32 noundef 1024, i64 noundef 0) #9
  store i64 %26, ptr %22, align 1
  br label %27

27:                                               ; preds = %25, %.lr.ph.i11
  %.1.i15 = phi i64 [ 8, %25 ], [ %.02224.i14, %.lr.ph.i11 ]
  %28 = sub nuw nsw i64 1024, %.1.i15
  %29 = tail call i64 @llvm.umin.i64(i64 %.02125.i13, i64 %28)
  %30 = getelementptr inbounds nuw i8, ptr %22, i64 %.1.i15
  tail call void @llvm.memcpy.p0.p0.i64(ptr noundef nonnull align 1 dereferenceable(1) %30, ptr noundef nonnull align 1 dereferenceable(1) %.026.i12, i64 %29, i1 false)
  %31 = add nuw nsw i64 %29, %.1.i15
  %32 = getelementptr inbounds nuw i8, ptr %.026.i12, i64 %29
  %33 = sub i64 %.02125.i13, %29
  %.not.i16 = icmp eq i64 %33, 0
  br i1 %.not.i16, label %AppendJumble.exit17, label %.lr.ph.i11, !llvm.loop !7

AppendJumble.exit17:                              ; preds = %27
  store i64 %31, ptr %7, align 8
  %34 = getelementptr inbounds nuw i8, ptr %1, i64 36
  %35 = load ptr, ptr %0, align 8
  br label %.lr.ph.i18

.lr.ph.i18:                                       ; preds = %39, %AppendJumble.exit17
  %.026.i19 = phi ptr [ %44, %39 ], [ %34, %AppendJumble.exit17 ]
  %.02125.i20 = phi i64 [ %45, %39 ], [ 4, %AppendJumble.exit17 ]
  %.02224.i21 = phi i64 [ %43, %39 ], [ %31, %AppendJumble.exit17 ]
  %36 = icmp ugt i64 %.02224.i21, 1023
  br i1 %36, label %37, label %39

37:                                               ; preds = %.lr.ph.i18
  %38 = tail call i64 @hash_bytes_extended(ptr noundef %35, i32 noundef 1024, i64 noundef 0) #9
  store i64 %38, ptr %35, align 1
  br label %39

39:                                               ; preds = %37, %.lr.ph.i18
  %.1.i22 = phi i64 [ 8, %37 ], [ %.02224.i21, %.lr.ph.i18 ]
  %40 = sub nuw nsw i64 1024, %.1.i22
  %41 = tail call i64 @llvm.umin.i64(i64 %.02125.i20, i64 %40)
  %42 = getelementptr inbounds nuw i8, ptr %35, i64 %.1.i22
  tail call void @llvm.memcpy.p0.p0.i64(ptr noundef nonnull align 1 dereferenceable(1) %42, ptr noundef nonnull align 1 dereferenceable(1) %.026.i19, i64 %41, i1 false)
  %43 = add nuw nsw i64 %41, %.1.i22
  %44 = getelementptr inbounds nuw i8, ptr %.026.i19, i64 %41
  %45 = sub i64 %.02125.i20, %41
  %.not.i23 = icmp eq i64 %45, 0
  br i1 %.not.i23, label %AppendJumble.exit24, label %.lr.ph.i18, !llvm.loop !7

AppendJumble.exit24:                              ; preds = %39
  store i64 %43, ptr %7, align 8
  ret void
}